; ModuleID = 'bench/zxing/original/TextEncoder.cpp.ll'
source_filename = "bench/zxing/original/TextEncoder.cpp.ll"
target datalayout = "e-m:e-p270:32:32-p271:32:32-p272:64:64-i64:64-i128:128-f80:128-n8:16:32:64-S128"
target triple = "x86_64-pc-linux-gnu"

%"class.std::__cxx11::basic_string" = type { %"struct.std::__cxx11::basic_string<char>::_Alloc_hider", i64, %union.anon }
%"struct.std::__cxx11::basic_string<char>::_Alloc_hider" = type { ptr }
%union.anon = type { i64, [8 x i8] }

@.str = private unnamed_addr constant [38 x i8] c"Internal error `zueci_dest_len_eci()`\00", align 1
@_ZTISt11logic_error = external constant ptr
@.str.1 = private unnamed_addr constant [20 x i8] c"Unexpected charcode\00", align 1
@_ZTISt16invalid_argument = external constant ptr

; Function Attrs: mustprogress uwtable
define void @_ZN5ZXing11TextEncoder8GetBytesERKNSt7__cxx1112basic_stringIcSt11char_traitsIcESaIcEEENS_12CharacterSetERS6_(ptr noundef nonnull align 8 dereferenceable(32) %0, i8 noundef zeroext %1, ptr noundef nonnull align 8 dereferenceable(32) %2) local_unnamed_addr #0 align 2 personality ptr @__gxx_personality_v0 {
  %4 = alloca i32, align 4
  %5 = tail call noundef i32 @_ZN5ZXing5ToECIENS_12CharacterSetE(i8 noundef zeroext %1)
  %6 = tail call noundef i64 @_ZNKSt7__cxx1112basic_stringIcSt11char_traitsIcESaIcEE6lengthEv(ptr noundef nonnull align 8 dereferenceable(32) %0) #3
  %7 = trunc i64 %6 to i32
  %8 = icmp eq i32 %5, -1
  %spec.store.select = select i1 %8, i32 899, i32 %5
  tail call void @_ZNSt7__cxx1112basic_stringIcSt11char_traitsIcESaIcEE5clearEv(ptr noundef nonnull align 8 dereferenceable(32) %2) #3
  %9 = tail call noundef ptr @_ZNKSt7__cxx1112basic_stringIcSt11char_traitsIcESaIcEE4dataEv(ptr noundef nonnull align 8 dereferenceable(32) %0) #3
  %10 = call i32 @zueci_dest_len_eci(i32 noundef %spec.store.select, ptr noundef %9, i32 noundef %7, ptr noundef nonnull %4)
  %11 = icmp sgt i32 %10, 4
  br i1 %11, label %12, label %17

12:                                               ; preds = %3
  %13 = call ptr @__cxa_allocate_exception(i64 16) #3
  invoke void @_ZNSt11logic_errorC1EPKc(ptr noundef nonnull align 8 dereferenceable(16) %13, ptr noundef nonnull @.str)
          to label %14 unwind label %15

14:                                               ; preds = %12
  call void @__cxa_throw(ptr nonnull %13, ptr nonnull @_ZTISt11logic_error, ptr nonnull @_ZNSt11logic_errorD1Ev) #4
  unreachable

15:                                               ; preds = %12
  %16 = landingpad { ptr, i32 }
          cleanup
  br label %32

17:                                               ; preds = %3
  %18 = load i32, ptr %4, align 4
  %19 = sext i32 %18 to i64
  call void @_ZNSt7__cxx1112basic_stringIcSt11char_traitsIcESaIcEE6resizeEm(ptr noundef nonnull align 8 dereferenceable(32) %2, i64 noundef %19)
  %20 = call noundef ptr @_ZNKSt7__cxx1112basic_stringIcSt11char_traitsIcESaIcEE4dataEv(ptr noundef nonnull align 8 dereferenceable(32) %0) #3
  %21 = call noundef ptr @_ZNSt7__cxx1112basic_stringIcSt11char_traitsIcESaIcEE4dataEv(ptr noundef nonnull align 8 dereferenceable(32) %2) #3
  %22 = call i32 @zueci_utf8_to_eci(i32 noundef %spec.store.select, ptr noundef %20, i32 noundef %7, ptr noundef %21, ptr noundef nonnull %4)
  %23 = icmp sgt i32 %22, 4
  br i1 %23, label %24, label %29

24:                                               ; preds = %17
  call void @_ZNSt7__cxx1112basic_stringIcSt11char_traitsIcESaIcEE5clearEv(ptr noundef nonnull align 8 dereferenceable(32) %2) #3
  %25 = call ptr @__cxa_allocate_exception(i64 16) #3
  invoke void @_ZNSt16invalid_argumentC1EPKc(ptr noundef nonnull align 8 dereferenceable(16) %25, ptr noundef nonnull @.str.1)
          to label %26 unwind label %27

26:                                               ; preds = %24
  call void @__cxa_throw(ptr nonnull %25, ptr nonnull @_ZTISt16invalid_argument, ptr nonnull @_ZNSt16invalid_argumentD1Ev) #4
  unreachable

27:                                               ; preds = %24
  %28 = landingpad { ptr, i32 }
          cleanup
  br label %32

29:                                               ; preds = %17
  %30 = load i32, ptr %4, align 4
  %31 = sext i32 %30 to i64
  call void @_ZNSt7__cxx1112basic_stringIcSt11char_traitsIcESaIcEE6resizeEm(ptr noundef nonnull align 8 dereferenceable(32) %2, i64 noundef %31)
  ret void

32:                                               ; preds = %27, %15
  %.sink = phi ptr [ %25, %27 ], [ %13, %15 ]
  %.pn = phi { ptr, i32 } [ %28, %27 ], [ %16, %15 ]
  call void @__cxa_free_exception(ptr %.sink) #3
  resume { ptr, i32 } %.pn
}

declare noundef i32 @_ZN5ZXing5ToECIENS_12CharacterSetE(i8 noundef zeroext) local_unnamed_addr #1

; Function Attrs: nounwind
declare noundef i64 @_ZNKSt7__cxx1112basic_stringIcSt11char_traitsIcESaIcEE6lengthEv(ptr noundef nonnull align 8 dereferenceable(32)) local_unnamed_addr #2

; Function Attrs: nounwind
declare void @_ZNSt7__cxx1112basic_stringIcSt11char_traitsIcESaIcEE5clearEv(ptr noundef nonnull align 8 dereferenceable(32)) local_unnamed_addr #2

declare i32 @zueci_dest_len_eci(i32 noundef, ptr noundef, i32 noundef, ptr noundef) local_unnamed_addr #1

; Function Attrs: nounwind
declare noundef ptr @_ZNKSt7__cxx1112basic_stringIcSt11char_traitsIcESaIcEE4dataEv(ptr noundef nonnull align 8 dereferenceable(32)) local_unnamed_addr #2

declare ptr @__cxa_allocate_exception(i64) local_unnamed_addr

declare void @_ZNSt11logic_errorC1EPKc(ptr noundef nonnull align 8 dereferenceable(16), ptr noundef) unnamed_addr #1

declare i32 @__gxx_personality_v0(...)

declare void @__cxa_free_exception(ptr) local_unnamed_addr

; Function Attrs: nounwind
declare void @_ZNSt11logic_errorD1Ev(ptr noundef nonnull align 8 dereferenceable(16)) unnamed_addr #2

declare void @__cxa_throw(ptr, ptr, ptr) local_unnamed_addr

declare void @_ZNSt7__cxx1112basic_stringIcSt11char_traitsIcESaIcEE6resizeEm(ptr noundef nonnull align 8 dereferenceable(32), i64 noundef) local_unnamed_addr #1

declare i32 @zueci_utf8_to_eci(i32 noundef, ptr noundef, i32 noundef, ptr noundef, ptr noundef) local_unnamed_addr #1

; Function Attrs: nounwind
declare noundef ptr @_ZNSt7__cxx1112basic_stringIcSt11char_traitsIcESaIcEE4dataEv(ptr noundef nonnull align 8 dereferenceable(32)) local_unnamed_addr #2

declare void @_ZNSt16invalid_argumentC1EPKc(ptr noundef nonnull align 8 dereferenceable(16), ptr noundef) unnamed_addr #1

; Function Attrs: nounwind
declare void @_ZNSt16invalid_argumentD1Ev(ptr noundef nonnull align 8 dereferenceable(16)) unnamed_addr #2

; Function Attrs: mustprogress uwtable
define void @_ZN5ZXing11TextEncoder8GetBytesERKNSt7__cxx1112basic_stringIwSt11char_traitsIwESaIwEEENS_12CharacterSetERNS2_IcS3_IcESaIcEEE(ptr noundef nonnull align 8 dereferenceable(32) %0, i8 noundef zeroext %1, ptr noundef nonnull align 8 dereferenceable(32) %2) local_unnamed_addr #0 align 2 personality ptr @__gxx_personality_v0 {
  %4 = alloca %"class.std::__cxx11::basic_string", align 8
  %5 = tail call { i64, ptr } @_ZNKSt7__cxx1112basic_stringIwSt11char_traitsIwESaIwEEcvSt17basic_string_viewIwS2_EEv(ptr noundef nonnull align 8 dereferenceable(32) %0) #3
  %6 = extractvalue { i64, ptr } %5, 0
  %7 = extractvalue { i64, ptr } %5, 1
  call void @_ZN5ZXing6ToUtf8B5cxx11ESt17basic_string_viewIwSt11char_traitsIwEE(ptr dead_on_unwind nonnull writable sret(%"class.std::__cxx11::basic_string") align 8 %4, i64 %6, ptr %7)
  invoke void @_ZN5ZXing11TextEncoder8GetBytesERKNSt7__cxx1112basic_stringIcSt11char_traitsIcESaIcEEENS_12CharacterSetERS6_(ptr noundef nonnull align 8 dereferenceable(32) %4, i8 noundef zeroext %1, ptr noundef nonnull align 8 dereferenceable(32) %2)
          to label %8 unwind label %9

8:                                                ; preds = %3
  call void @_ZNSt7__cxx1112basic_stringIcSt11char_traitsIcESaIcEED1Ev(ptr noundef nonnull align 8 dereferenceable(32) %4) #3
  ret void

9:                                                ; preds = %3
  %10 = landingpad { ptr, i32 }
          cleanup
  call void @_ZNSt7__cxx1112basic_stringIcSt11char_traitsIcESaIcEED1Ev(ptr noundef nonnull align 8 dereferenceable(32) %4) #3
  resume { ptr, i32 } %10
}

declare void @_ZN5ZXing6ToUtf8B5cxx11ESt17basic_string_viewIwSt11char_traitsIwEE(ptr dead_on_unwind writable sret(%"class.std::__cxx11::basic_string") align 8, i64, ptr) local_unnamed_addr #1

; Function Attrs: nounwind
declare { i64, ptr } @_ZNKSt7__cxx1112basic_stringIwSt11char_traitsIwESaIwEEcvSt17basic_string_viewIwS2_EEv(ptr noundef nonnull align 8 dereferenceable(32)) local_unnamed_addr #2

; Function Attrs: nounwind
declare void @_ZNSt7__cxx1112basic_stringIcSt11char_traitsIcESaIcEED1Ev(ptr noundef nonnull align 8 dereferenceable(32)) unnamed_addr #2


!llvm.module.flags = !{!0, !1, !2, !3}

!0 = !{i32 1, !"wchar_size", i32 4}
!1 = !{i32 8, !"PIC Level", i32 2}
!2 = !{i32 7, !"uwtable", i32 2}
!3 = !{i32 7, !"frame-pointer", i32 2}
